target datalayout = "e-m:e-p270:32:32-p271:32:32-p272:64:64-i64:64-i128:128-f80:128-n8:16:32:64-S128"
target triple = "x86_64-unknown-linux-gnu"

%struct.aiColor3D = type { float, float, float }
%"class.Assimp::Discreet3DSImporter" = type <{ %"class.Assimp::BaseImporter", ptr, i16, [6 x i8], ptr, ptr, ptr, %struct.aiColor3D, float, %"class.std::__cxx11::basic_string", i8, i8, [6 x i8] }>
%"class.Assimp::BaseImporter" = type { ptr, double, double, %"class.std::__cxx11::basic_string", %"class.std::__exception_ptr::exception_ptr", ptr }
%"class.std::__exception_ptr::exception_ptr" = type { ptr }
%"class.std::__cxx11::basic_string" = type { %"struct.std::__cxx11::basic_string<char>::_Alloc_hider", i64, %union.anon }
%"struct.std::__cxx11::basic_string<char>::_Alloc_hider" = type { ptr }
%union.anon = type { i64, [8 x i8] }
%"class.Assimp::StreamReader" = type <{ %"class.std::shared_ptr", ptr, ptr, ptr, ptr, i8, [7 x i8] }>
%"class.std::shared_ptr" = type { %"class.std::__shared_ptr" }
%"class.std::__shared_ptr" = type { ptr, %"class.std::__shared_count" }
%"class.std::__shared_count" = type { ptr }
%"struct.Assimp::D3DS::Discreet3DS::Chunk" = type <{ i16, i32 }>
%"struct.Assimp::Intern::Getter" = type { i8 }
%"struct.Assimp::Intern::ByteSwapper" = type { i8 }
%"struct.Assimp::Intern::Getter.87" = type { i8 }
%"struct.Assimp::Intern::ByteSwapper.88" = type { i8 }

@_ZTI17DeadlyImportError = linkonce_odr constant { ptr, ptr, ptr } { ptr getelementptr inbounds (ptr, ptr @_ZTVN10__cxxabiv120__si_class_type_infoE, i64 2), ptr @_ZTS17DeadlyImportError, ptr @_ZTI15DeadlyErrorBase }, comdat, align 8
@.str.5 = private unnamed_addr constant [19 x i8] c"Chunk is too large\00", align 1
@.str.6 = private unnamed_addr constant [20 x i8] c"3DS: Chunk overflow\00", align 1
@.str.37 = private unnamed_addr constant [40 x i8] c"End of file or stream limit was reached\00", align 1

; Function Attrs: mustprogress nounwind uwtable
define linkonce_odr hidden void @_ZN6Assimp6Intern11ByteSwapperIiLb0EEclEPi(ptr noundef nonnull align 1 dereferenceable(1) %this, ptr noundef %0) #0 comdat align 2 {
entry:
  %this.addr = alloca ptr, align 8
  %.addr = alloca ptr, align 8
  store ptr %this, ptr %this.addr, align 8
  store ptr %0, ptr %.addr, align 8
  ret void
}

; Function Attrs: mustprogress nounwind uwtable
define linkonce_odr hidden void @_ZN6Assimp6Intern11ByteSwapperIsLb0EEclEPs(ptr noundef nonnull align 1 dereferenceable(1) %this, ptr noundef %0) #0 comdat align 2 {
entry:
  %this.addr = alloca ptr, align 8
  %.addr = alloca ptr, align 8
  store ptr %this, ptr %this.addr, align 8
  store ptr %0, ptr %.addr, align 8
  ret void
}

; Function Attrs: mustprogress uwtable
define linkonce_odr hidden void @_ZN6Assimp6Intern6GetterILb0EiLb0EEclEPib(ptr noundef nonnull align 1 dereferenceable(1) %this, ptr noundef %inout, i1 noundef zeroext %0) #3 comdat align 2 {
entry:
  %this.addr = alloca ptr, align 8
  %inout.addr = alloca ptr, align 8
  %.addr = alloca i8, align 1
  %ref.tmp = alloca %"struct.Assimp::Intern::ByteSwapper.88", align 1
  store ptr %this, ptr %this.addr, align 8
  store ptr %inout, ptr %inout.addr, align 8
  %frombool = zext i1 %0 to i8
  store i8 %frombool, ptr %.addr, align 1
  %1 = load ptr, ptr %inout.addr, align 8
  call void @_ZN6Assimp6Intern11ByteSwapperIiLb0EEclEPi(ptr noundef nonnull align 1 dereferenceable(1) %ref.tmp, ptr noundef %1)
  ret void
}

; Function Attrs: mustprogress uwtable
define linkonce_odr hidden void @_ZN6Assimp6Intern6GetterILb0EsLb0EEclEPsb(ptr noundef nonnull align 1 dereferenceable(1) %this, ptr noundef %inout, i1 noundef zeroext %0) #3 comdat align 2 {
entry:
  %this.addr = alloca ptr, align 8
  %inout.addr = alloca ptr, align 8
  %.addr = alloca i8, align 1
  %ref.tmp = alloca %"struct.Assimp::Intern::ByteSwapper", align 1
  store ptr %this, ptr %this.addr, align 8
  store ptr %inout, ptr %inout.addr, align 8
  %frombool = zext i1 %0 to i8
  store i8 %frombool, ptr %.addr, align 1
  %1 = load ptr, ptr %inout.addr, align 8
  call void @_ZN6Assimp6Intern11ByteSwapperIsLb0EEclEPs(ptr noundef nonnull align 1 dereferenceable(1) %ref.tmp, ptr noundef %1)
  ret void
}

; Function Attrs: mustprogress uwtable
define linkonce_odr hidden noundef i32 @_ZN6Assimp12StreamReaderILb0ELb0EE3GetIiEET_v(ptr noundef nonnull align 8 dereferenceable(49) %this) #3 comdat align 2 personality ptr @__gxx_personality_v0 {
entry:
  %this.addr = alloca ptr, align 8
  %exn.slot = alloca ptr, align 8
  %ehselector.slot = alloca i32, align 4
  %f = alloca i32, align 4
  %ref.tmp = alloca %"struct.Assimp::Intern::Getter.87", align 1
  store ptr %this, ptr %this.addr, align 8
  %this1 = load ptr, ptr %this.addr, align 8
  %mCurrent = getelementptr inbounds %"class.Assimp::StreamReader", ptr %this1, i32 0, i32 2
  %0 = load ptr, ptr %mCurrent, align 8
  %add.ptr = getelementptr inbounds i8, ptr %0, i64 4
  %mLimit = getelementptr inbounds %"class.Assimp::StreamReader", ptr %this1, i32 0, i32 4
  %1 = load ptr, ptr %mLimit, align 8
  %cmp = icmp ugt ptr %add.ptr, %1
  br i1 %cmp, label %if.then, label %if.end

if.then:                                          ; preds = %entry
  %exception = call ptr @__cxa_allocate_exception(i64 16) #10
  invoke void @_ZN17DeadlyImportErrorC2EPKc(ptr noundef nonnull align 8 dereferenceable(16) %exception, ptr noundef @.str.37)
          to label %invoke.cont unwind label %lpad

invoke.cont:                                      ; preds = %if.then
  call void @__cxa_throw(ptr %exception, ptr @_ZTI17DeadlyImportError, ptr @_ZN17DeadlyImportErrorD2Ev) #18
  unreachable

lpad:                                             ; preds = %if.then
  %2 = landingpad { ptr, i32 }
          cleanup
  %3 = extractvalue { ptr, i32 } %2, 0
  store ptr %3, ptr %exn.slot, align 8
  %4 = extractvalue { ptr, i32 } %2, 1
  store i32 %4, ptr %ehselector.slot, align 4
  call void @__cxa_free_exception(ptr %exception) #10
  br label %eh.resume

if.end:                                           ; preds = %entry
  %mCurrent2 = getelementptr inbounds %"class.Assimp::StreamReader", ptr %this1, i32 0, i32 2
  %5 = load ptr, ptr %mCurrent2, align 8
  call void @llvm.memcpy.p0.p0.i64(ptr align 4 %f, ptr align 1 %5, i64 4, i1 false)
  %mLe = getelementptr inbounds %"class.Assimp::StreamReader", ptr %this1, i32 0, i32 5
  %6 = load i8, ptr %mLe, align 8
  %tobool = trunc i8 %6 to i1
  call void @_ZN6Assimp6Intern6GetterILb0EiLb0EEclEPib(ptr noundef nonnull align 1 dereferenceable(1) %ref.tmp, ptr noundef %f, i1 noundef zeroext %tobool)
  %mCurrent3 = getelementptr inbounds %"class.Assimp::StreamReader", ptr %this1, i32 0, i32 2
  %7 = load ptr, ptr %mCurrent3, align 8
  %add.ptr4 = getelementptr inbounds i8, ptr %7, i64 4
  store ptr %add.ptr4, ptr %mCurrent3, align 8
  %8 = load i32, ptr %f, align 4
  ret i32 %8

eh.resume:                                        ; preds = %lpad
  %exn = load ptr, ptr %exn.slot, align 8
  %sel = load i32, ptr %ehselector.slot, align 4
  %lpad.val = insertvalue { ptr, i32 } poison, ptr %exn, 0
  %lpad.val5 = insertvalue { ptr, i32 } %lpad.val, i32 %sel, 1
  resume { ptr, i32 } %lpad.val5
}

; Function Attrs: mustprogress uwtable
define linkonce_odr hidden noundef signext i16 @_ZN6Assimp12StreamReaderILb0ELb0EE3GetIsEET_v(ptr noundef nonnull align 8 dereferenceable(49) %this) #3 comdat align 2 personality ptr @__gxx_personality_v0 {
entry:
  %this.addr = alloca ptr, align 8
  %exn.slot = alloca ptr, align 8
  %ehselector.slot = alloca i32, align 4
  %f = alloca i16, align 2
  %ref.tmp = alloca %"struct.Assimp::Intern::Getter", align 1
  store ptr %this, ptr %this.addr, align 8
  %this1 = load ptr, ptr %this.addr, align 8
  %mCurrent = getelementptr inbounds %"class.Assimp::StreamReader", ptr %this1, i32 0, i32 2
  %0 = load ptr, ptr %mCurrent, align 8
  %add.ptr = getelementptr inbounds i8, ptr %0, i64 2
  %mLimit = getelementptr inbounds %"class.Assimp::StreamReader", ptr %this1, i32 0, i32 4
  %1 = load ptr, ptr %mLimit, align 8
  %cmp = icmp ugt ptr %add.ptr, %1
  br i1 %cmp, label %if.then, label %if.end

if.then:                                          ; preds = %entry
  %exception = call ptr @__cxa_allocate_exception(i64 16) #10
  invoke void @_ZN17DeadlyImportErrorC2EPKc(ptr noundef nonnull align 8 dereferenceable(16) %exception, ptr noundef @.str.37)
          to label %invoke.cont unwind label %lpad

invoke.cont:                                      ; preds = %if.then
  call void @__cxa_throw(ptr %exception, ptr @_ZTI17DeadlyImportError, ptr @_ZN17DeadlyImportErrorD2Ev) #18
  unreachable

lpad:                                             ; preds = %if.then
  %2 = landingpad { ptr, i32 }
          cleanup
  %3 = extractvalue { ptr, i32 } %2, 0
  store ptr %3, ptr %exn.slot, align 8
  %4 = extractvalue { ptr, i32 } %2, 1
  store i32 %4, ptr %ehselector.slot, align 4
  call void @__cxa_free_exception(ptr %exception) #10
  br label %eh.resume

if.end:                                           ; preds = %entry
  %mCurrent2 = getelementptr inbounds %"class.Assimp::StreamReader", ptr %this1, i32 0, i32 2
  %5 = load ptr, ptr %mCurrent2, align 8
  call void @llvm.memcpy.p0.p0.i64(ptr align 2 %f, ptr align 1 %5, i64 2, i1 false)
  %mLe = getelementptr inbounds %"class.Assimp::StreamReader", ptr %this1, i32 0, i32 5
  %6 = load i8, ptr %mLe, align 8
  %tobool = trunc i8 %6 to i1
  call void @_ZN6Assimp6Intern6GetterILb0EsLb0EEclEPsb(ptr noundef nonnull align 1 dereferenceable(1) %ref.tmp, ptr noundef %f, i1 noundef zeroext %tobool)
  %mCurrent3 = getelementptr inbounds %"class.Assimp::StreamReader", ptr %this1, i32 0, i32 2
  %7 = load ptr, ptr %mCurrent3, align 8
  %add.ptr4 = getelementptr inbounds i8, ptr %7, i64 2
  store ptr %add.ptr4, ptr %mCurrent3, align 8
  %8 = load i16, ptr %f, align 2
  ret i16 %8

eh.resume:                                        ; preds = %lpad
  %exn = load ptr, ptr %exn.slot, align 8
  %sel = load i32, ptr %ehselector.slot, align 4
  %lpad.val = insertvalue { ptr, i32 } poison, ptr %exn, 0
  %lpad.val5 = insertvalue { ptr, i32 } %lpad.val, i32 %sel, 1
  resume { ptr, i32 } %lpad.val5
}

; Function Attrs: mustprogress nounwind uwtable
define linkonce_odr hidden noundef i64 @_ZNK6Assimp12StreamReaderILb0ELb0EE23GetRemainingSizeToLimitEv(ptr noundef nonnull align 8 dereferenceable(49) %this) #0 comdat align 2 {
entry:
  %this.addr = alloca ptr, align 8
  store ptr %this, ptr %this.addr, align 8
  %this1 = load ptr, ptr %this.addr, align 8
  %mLimit = getelementptr inbounds %"class.Assimp::StreamReader", ptr %this1, i32 0, i32 4
  %0 = load ptr, ptr %mLimit, align 8
  %mCurrent = getelementptr inbounds %"class.Assimp::StreamReader", ptr %this1, i32 0, i32 2
  %1 = load ptr, ptr %mCurrent, align 8
  %sub.ptr.lhs.cast = ptrtoint ptr %0 to i64
  %sub.ptr.rhs.cast = ptrtoint ptr %1 to i64
  %sub.ptr.sub = sub i64 %sub.ptr.lhs.cast, %sub.ptr.rhs.cast
  %conv = trunc i64 %sub.ptr.sub to i32
  %conv2 = zext i32 %conv to i64
  ret i64 %conv2
}

; Function Attrs: mustprogress nounwind uwtable
define linkonce_odr hidden noundef i64 @_ZNK6Assimp12StreamReaderILb0ELb0EE16GetRemainingSizeEv(ptr noundef nonnull align 8 dereferenceable(49) %this) #0 comdat align 2 {
entry:
  %this.addr = alloca ptr, align 8
  store ptr %this, ptr %this.addr, align 8
  %this1 = load ptr, ptr %this.addr, align 8
  %mEnd = getelementptr inbounds %"class.Assimp::StreamReader", ptr %this1, i32 0, i32 3
  %0 = load ptr, ptr %mEnd, align 8
  %mCurrent = getelementptr inbounds %"class.Assimp::StreamReader", ptr %this1, i32 0, i32 2
  %1 = load ptr, ptr %mCurrent, align 8
  %sub.ptr.lhs.cast = ptrtoint ptr %0 to i64
  %sub.ptr.rhs.cast = ptrtoint ptr %1 to i64
  %sub.ptr.sub = sub i64 %sub.ptr.lhs.cast, %sub.ptr.rhs.cast
  %conv = trunc i64 %sub.ptr.sub to i32
  %conv2 = zext i32 %conv to i64
  ret i64 %conv2
}

; Function Attrs: mustprogress uwtable
define linkonce_odr hidden noundef i32 @_ZN6Assimp12StreamReaderILb0ELb0EE5GetI4Ev(ptr noundef nonnull align 8 dereferenceable(49) %this) #3 comdat align 2 {
entry:
  %this.addr = alloca ptr, align 8
  store ptr %this, ptr %this.addr, align 8
  %this1 = load ptr, ptr %this.addr, align 8
  %call = call noundef i32 @_ZN6Assimp12StreamReaderILb0ELb0EE3GetIiEET_v(ptr noundef nonnull align 8 dereferenceable(49) %this1)
  ret i32 %call
}

; Function Attrs: mustprogress uwtable
define linkonce_odr hidden noundef signext i16 @_ZN6Assimp12StreamReaderILb0ELb0EE5GetI2Ev(ptr noundef nonnull align 8 dereferenceable(49) %this) #3 comdat align 2 {
entry:
  %this.addr = alloca ptr, align 8
  store ptr %this, ptr %this.addr, align 8
  %this1 = load ptr, ptr %this.addr, align 8
  %call = call noundef signext i16 @_ZN6Assimp12StreamReaderILb0ELb0EE3GetIsEET_v(ptr noundef nonnull align 8 dereferenceable(49) %this1)
  ret i16 %call
}

; Function Attrs: mustprogress uwtable
define hidden void @_ZN6Assimp19Discreet3DSImporter9ReadChunkEPNS_4D3DS11Discreet3DS5ChunkE(ptr noundef nonnull align 8 dereferenceable(162) %this, ptr noundef %pcOut) #3 align 2 personality ptr @__gxx_personality_v0 {
entry:
  %this.addr = alloca ptr, align 8
  %pcOut.addr = alloca ptr, align 8
  %exn.slot = alloca ptr, align 8
  %ehselector.slot = alloca i32, align 4
  store ptr %this, ptr %this.addr, align 8
  store ptr %pcOut, ptr %pcOut.addr, align 8
  %this1 = load ptr, ptr %this.addr, align 8
  %stream = getelementptr inbounds %"class.Assimp::Discreet3DSImporter", ptr %this1, i32 0, i32 1
  %0 = load ptr, ptr %stream, align 8
  %call = call noundef signext i16 @_ZN6Assimp12StreamReaderILb0ELb0EE5GetI2Ev(ptr noundef nonnull align 8 dereferenceable(49) %0)
  %1 = load ptr, ptr %pcOut.addr, align 8
  %Flag = getelementptr inbounds %"struct.Assimp::D3DS::Discreet3DS::Chunk", ptr %1, i32 0, i32 0
  store i16 %call, ptr %Flag, align 1
  %stream2 = getelementptr inbounds %"class.Assimp::Discreet3DSImporter", ptr %this1, i32 0, i32 1
  %2 = load ptr, ptr %stream2, align 8
  %call3 = call noundef i32 @_ZN6Assimp12StreamReaderILb0ELb0EE5GetI4Ev(ptr noundef nonnull align 8 dereferenceable(49) %2)
  %3 = load ptr, ptr %pcOut.addr, align 8
  %Size = getelementptr inbounds %"struct.Assimp::D3DS::Discreet3DS::Chunk", ptr %3, i32 0, i32 1
  store i32 %call3, ptr %Size, align 1
  %4 = load ptr, ptr %pcOut.addr, align 8
  %Size4 = getelementptr inbounds %"struct.Assimp::D3DS::Discreet3DS::Chunk", ptr %4, i32 0, i32 1
  %5 = load i32, ptr %Size4, align 1
  %conv = zext i32 %5 to i64
  %sub = sub i64 %conv, 6
  %stream5 = getelementptr inbounds %"class.Assimp::Discreet3DSImporter", ptr %this1, i32 0, i32 1
  %6 = load ptr, ptr %stream5, align 8
  %call6 = call noundef i64 @_ZNK6Assimp12StreamReaderILb0ELb0EE16GetRemainingSizeEv(ptr noundef nonnull align 8 dereferenceable(49) %6)
  %cmp = icmp ugt i64 %sub, %call6
  br i1 %cmp, label %if.then, label %if.end

if.then:                                          ; preds = %entry
  %exception = call ptr @__cxa_allocate_exception(i64 16) #10
  invoke void @_ZN17DeadlyImportErrorC2EPKc(ptr noundef nonnull align 8 dereferenceable(16) %exception, ptr noundef @.str.5)
          to label %invoke.cont unwind label %lpad

invoke.cont:                                      ; preds = %if.then
  call void @__cxa_throw(ptr %exception, ptr @_ZTI17DeadlyImportError, ptr @_ZN17DeadlyImportErrorD2Ev) #18
  unreachable

lpad:                                             ; preds = %if.then
  %7 = landingpad { ptr, i32 }
          cleanup
  %8 = extractvalue { ptr, i32 } %7, 0
  store ptr %8, ptr %exn.slot, align 8
  %9 = extractvalue { ptr, i32 } %7, 1
  store i32 %9, ptr %ehselector.slot, align 4
  call void @__cxa_free_exception(ptr %exception) #10
  br label %eh.resume

if.end:                                           ; preds = %entry
  %10 = load ptr, ptr %pcOut.addr, align 8
  %Size7 = getelementptr inbounds %"struct.Assimp::D3DS::Discreet3DS::Chunk", ptr %10, i32 0, i32 1
  %11 = load i32, ptr %Size7, align 1
  %conv8 = zext i32 %11 to i64
  %sub9 = sub i64 %conv8, 6
  %stream10 = getelementptr inbounds %"class.Assimp::Discreet3DSImporter", ptr %this1, i32 0, i32 1
  %12 = load ptr, ptr %stream10, align 8
  %call11 = call noundef i64 @_ZNK6Assimp12StreamReaderILb0ELb0EE23GetRemainingSizeToLimitEv(ptr noundef nonnull align 8 dereferenceable(49) %12)
  %cmp12 = icmp ugt i64 %sub9, %call11
  br i1 %cmp12, label %if.then13, label %if.end15

if.then13:                                        ; preds = %if.end
  %call14 = call noundef ptr @_ZN6Assimp13DefaultLogger3getEv()
  call void @_ZN6Assimp6Logger5errorEPKc(ptr noundef nonnull align 8 dereferenceable(12) %call14, ptr noundef @.str.6)
  br label %if.end15

if.end15:                                         ; preds = %if.then13, %if.end
  ret void

eh.resume:                                        ; preds = %lpad
  %exn = load ptr, ptr %exn.slot, align 8
  %sel = load i32, ptr %ehselector.slot, align 4
  %lpad.val = insertvalue { ptr, i32 } poison, ptr %exn, 0
  %lpad.val16 = insertvalue { ptr, i32 } %lpad.val, i32 %sel, 1
  resume { ptr, i32 } %lpad.val16
}