; Function Attrs: mustprogress uwtable
define hidden void @_ZN6Assimp19Discreet3DSImporter9ReadChunkEPNS_4D3DS11Discreet3DS5ChunkE(ptr nocapture noundef nonnull readonly align 8 dereferenceable(162) %this, ptr nocapture noundef writeonly %pcOut) local_unnamed_addr #2 align 2 personality ptr @__gxx_personality_v0 {
entry:
  %stream = getelementptr inbounds i8, ptr %this, i64 72
  %0 = load ptr, ptr %stream, align 8
  %mCurrent.i.i = getelementptr inbounds i8, ptr %0, i64 24
  %1 = load ptr, ptr %mCurrent.i.i, align 8
  %add.ptr.i.i = getelementptr inbounds i8, ptr %1, i64 2
  %mLimit.i.i = getelementptr inbounds i8, ptr %0, i64 40
  %2 = load ptr, ptr %mLimit.i.i, align 8
  %cmp.i.i = icmp ugt ptr %add.ptr.i.i, %2
  br i1 %cmp.i.i, label %if.then.i.i, label %_ZN6Assimp12StreamReaderILb0ELb0EE5GetI2Ev.exit

if.then.i.i:                                      ; preds = %entry
  %exception.i.i = tail call ptr @__cxa_allocate_exception(i64 16) #22
  invoke void @_ZN17DeadlyImportErrorC2EPKc(ptr noundef nonnull align 8 dereferenceable(16) %exception.i.i, ptr noundef nonnull @.str.37)
          to label %invoke.cont.i.i unwind label %lpad.i.i

invoke.cont.i.i:                                  ; preds = %if.then.i.i
  tail call void @__cxa_throw(ptr nonnull %exception.i.i, ptr nonnull @_ZTI17DeadlyImportError, ptr nonnull @_ZN17DeadlyImportErrorD2Ev) #23
  unreachable

common.resume:                                    ; preds = %lpad, %lpad.i.i10, %lpad.i.i
  %exception.sink = phi ptr [ %exception, %lpad ], [ %exception.i.i9, %lpad.i.i10 ], [ %exception.i.i, %lpad.i.i ]
  %common.resume.op = phi { ptr, i32 } [ %13, %lpad ], [ %8, %lpad.i.i10 ], [ %3, %lpad.i.i ]
  tail call void @__cxa_free_exception(ptr %exception.sink) #22
  resume { ptr, i32 } %common.resume.op

lpad.i.i:                                         ; preds = %if.then.i.i
  %3 = landingpad { ptr, i32 }
          cleanup
  br label %common.resume

_ZN6Assimp12StreamReaderILb0ELb0EE5GetI2Ev.exit:  ; preds = %entry
  %4 = load i16, ptr %1, align 1
  store ptr %add.ptr.i.i, ptr %mCurrent.i.i, align 8
  store i16 %4, ptr %pcOut, align 1
  %5 = load ptr, ptr %stream, align 8
  %mCurrent.i.i4 = getelementptr inbounds i8, ptr %5, i64 24
  %6 = load ptr, ptr %mCurrent.i.i4, align 8
  %add.ptr.i.i5 = getelementptr inbounds i8, ptr %6, i64 4
  %mLimit.i.i6 = getelementptr inbounds i8, ptr %5, i64 40
  %7 = load ptr, ptr %mLimit.i.i6, align 8
  %cmp.i.i7 = icmp ugt ptr %add.ptr.i.i5, %7
  br i1 %cmp.i.i7, label %if.then.i.i8, label %_ZN6Assimp12StreamReaderILb0ELb0EE5GetI4Ev.exit

if.then.i.i8:                                     ; preds = %_ZN6Assimp12StreamReaderILb0ELb0EE5GetI2Ev.exit
  %exception.i.i9 = tail call ptr @__cxa_allocate_exception(i64 16) #22
  invoke void @_ZN17DeadlyImportErrorC2EPKc(ptr noundef nonnull align 8 dereferenceable(16) %exception.i.i9, ptr noundef nonnull @.str.37)
          to label %invoke.cont.i.i11 unwind label %lpad.i.i10

invoke.cont.i.i11:                                ; preds = %if.then.i.i8
  tail call void @__cxa_throw(ptr nonnull %exception.i.i9, ptr nonnull @_ZTI17DeadlyImportError, ptr nonnull @_ZN17DeadlyImportErrorD2Ev) #23
  unreachable

lpad.i.i10:                                       ; preds = %if.then.i.i8
  %8 = landingpad { ptr, i32 }
          cleanup
  br label %common.resume

_ZN6Assimp12StreamReaderILb0ELb0EE5GetI4Ev.exit:  ; preds = %_ZN6Assimp12StreamReaderILb0ELb0EE5GetI2Ev.exit
  %9 = load i32, ptr %6, align 1
  store ptr %add.ptr.i.i5, ptr %mCurrent.i.i4, align 8
  %Size = getelementptr inbounds i8, ptr %pcOut, i64 2
  store i32 %9, ptr %Size, align 1
  %conv = zext i32 %9 to i64
  %sub = add nsw i64 %conv, -6
  %10 = load ptr, ptr %stream, align 8
  %mEnd.i = getelementptr inbounds i8, ptr %10, i64 32
  %11 = load ptr, ptr %mEnd.i, align 8
  %mCurrent.i = getelementptr inbounds i8, ptr %10, i64 24
  %12 = load ptr, ptr %mCurrent.i, align 8
  %sub.ptr.lhs.cast.i = ptrtoint ptr %11 to i64
  %sub.ptr.rhs.cast.i = ptrtoint ptr %12 to i64
  %sub.ptr.sub.i = sub i64 %sub.ptr.lhs.cast.i, %sub.ptr.rhs.cast.i
  %conv2.i = and i64 %sub.ptr.sub.i, 4294967295
  %cmp = icmp ugt i64 %sub, %conv2.i
  br i1 %cmp, label %if.then, label %if.end

if.then:                                          ; preds = %_ZN6Assimp12StreamReaderILb0ELb0EE5GetI4Ev.exit
  %exception = tail call ptr @__cxa_allocate_exception(i64 16) #22
  invoke void @_ZN17DeadlyImportErrorC2EPKc(ptr noundef nonnull align 8 dereferenceable(16) %exception, ptr noundef nonnull @.str.5)
          to label %invoke.cont unwind label %lpad

invoke.cont:                                      ; preds = %if.then
  tail call void @__cxa_throw(ptr nonnull %exception, ptr nonnull @_ZTI17DeadlyImportError, ptr nonnull @_ZN17DeadlyImportErrorD2Ev) #23
  unreachable

lpad:                                             ; preds = %if.then
  %13 = landingpad { ptr, i32 }
          cleanup
  br label %common.resume

if.end:                                           ; preds = %_ZN6Assimp12StreamReaderILb0ELb0EE5GetI4Ev.exit
  %mLimit.i = getelementptr inbounds i8, ptr %10, i64 40
  %14 = load ptr, ptr %mLimit.i, align 8
  %sub.ptr.lhs.cast.i13 = ptrtoint ptr %14 to i64
  %sub.ptr.sub.i15 = sub i64 %sub.ptr.lhs.cast.i13, %sub.ptr.rhs.cast.i
  %conv2.i16 = and i64 %sub.ptr.sub.i15, 4294967295
  %cmp12 = icmp ugt i64 %sub, %conv2.i16
  br i1 %cmp12, label %if.then13, label %if.end15

if.then13:                                        ; preds = %if.end
  %call14 = tail call noundef ptr @_ZN6Assimp13DefaultLogger3getEv()
  tail call void @_ZN6Assimp6Logger5errorEPKc(ptr noundef nonnull align 8 dereferenceable(12) %call14, ptr noundef nonnull @.str.6)
  br label %if.end15

if.end15:                                         ; preds = %if.then13, %if.end
  ret void
}